target datalayout = "e-m:e-p270:32:32-p271:32:32-p272:64:64-i64:64-i128:128-f80:128-n8:16:32:64-S128"
target triple = "x86_64-pc-linux-gnu"

%struct.PACKET = type { ptr, i64 }

@.str.35 = private unnamed_addr constant [37 x i8] c"../openssl/include/internal/packet.h\00", align 1

; Function Attrs: inlinehint nounwind uwtable
define internal i64 @PACKET_remaining(ptr noundef %0) #4 {
  %2 = alloca ptr, align 8
  store ptr %0, ptr %2, align 8, !tbaa !11
  %3 = load ptr, ptr %2, align 8, !tbaa !11
  %4 = getelementptr inbounds nuw %struct.PACKET, ptr %3, i32 0, i32 1
  %5 = load i64, ptr %4, align 8, !tbaa !26
  ret i64 %5
}

; Function Attrs: inlinehint nounwind uwtable
define internal i32 @PACKET_strndup(ptr noundef %0, ptr noundef %1) #4 {
  %3 = alloca ptr, align 8
  %4 = alloca ptr, align 8
  store ptr %0, ptr %3, align 8, !tbaa !11
  store ptr %1, ptr %4, align 8, !tbaa !18
  %5 = load ptr, ptr %4, align 8, !tbaa !18
  %6 = load ptr, ptr %5, align 8, !tbaa !4
  call void @CRYPTO_free(ptr noundef %6, ptr noundef @.str.35, i32 noundef 483)
  %7 = load ptr, ptr %3, align 8, !tbaa !11
  %8 = getelementptr inbounds nuw %struct.PACKET, ptr %7, i32 0, i32 0
  %9 = load ptr, ptr %8, align 8, !tbaa !24
  %10 = load ptr, ptr %3, align 8, !tbaa !11
  %11 = call i64 @PACKET_remaining(ptr noundef %10)
  %12 = call noalias ptr @CRYPTO_strndup(ptr noundef %9, i64 noundef %11, ptr noundef @.str.35, i32 noundef 486)
  %13 = load ptr, ptr %4, align 8, !tbaa !18
  store ptr %12, ptr %13, align 8, !tbaa !4
  %14 = load ptr, ptr %4, align 8, !tbaa !18
  %15 = load ptr, ptr %14, align 8, !tbaa !4
  %16 = icmp ne ptr %15, null
  %17 = zext i1 %16 to i32
  ret i32 %17
}