; Function Attrs: inlinehint nounwind uwtable
define internal fastcc range(i32 0, 2) i32 @PACKET_strndup(ptr %.0.val, i64 %.8.val, ptr noundef nonnull captures(none) %0) unnamed_addr #3 {
  %2 = load ptr, ptr %0, align 8, !tbaa !4
  tail call void @CRYPTO_free(ptr noundef %2, ptr noundef nonnull @.str.35, i32 noundef 483) #5
  %3 = tail call noalias ptr @CRYPTO_strndup(ptr noundef %.0.val, i64 noundef %.8.val, ptr noundef nonnull @.str.35, i32 noundef 486) #5
  store ptr %3, ptr %0, align 8, !tbaa !4
  %4 = icmp ne ptr %3, null
  %5 = zext i1 %4 to i32
  ret i32 %5
}